target datalayout = "e-m:e-p270:32:32-p271:32:32-p272:64:64-i64:64-i128:128-f80:128-n8:16:32:64-S128"
target triple = "x86_64-pc-linux-gnu"

%"struct.pxrInternal_v0_24__pxrReserved__::TfStreamFloat" = type { float }
%"class.pxrInternal_v0_24__pxrReserved__::GfRange1f" = type { float, float }

@.str.2 = private unnamed_addr constant [4 x i8] c"...\00", align 1

; Function Attrs: mustprogress nounwind uwtable
define linkonce_odr void @_ZN32pxrInternal_v0_24__pxrReserved__13TfStreamFloatC2Ef(ptr noundef nonnull align 4 dereferenceable(4) %0, float noundef %1) unnamed_addr #2 comdat align 2 {
  %3 = alloca ptr, align 8
  %4 = alloca float, align 4
  store ptr %0, ptr %3, align 8
  store float %1, ptr %4, align 4
  %5 = load ptr, ptr %3, align 8
  %6 = getelementptr inbounds nuw %"struct.pxrInternal_v0_24__pxrReserved__::TfStreamFloat", ptr %5, i32 0, i32 0
  %7 = load float, ptr %4, align 4
  store float %7, ptr %6, align 4
  ret void
}

; Function Attrs: mustprogress nounwind uwtable
define linkonce_odr noundef float @_ZNK32pxrInternal_v0_24__pxrReserved__9GfRange1f6GetMaxEv(ptr noundef nonnull align 4 dereferenceable(8) %0) #2 comdat align 2 {
  %2 = alloca ptr, align 8
  store ptr %0, ptr %2, align 8
  %3 = load ptr, ptr %2, align 8
  %4 = getelementptr inbounds nuw %"class.pxrInternal_v0_24__pxrReserved__::GfRange1f", ptr %3, i32 0, i32 1
  %5 = load float, ptr %4, align 4
  ret float %5
}

; Function Attrs: mustprogress uwtable
define linkonce_odr float @_ZN32pxrInternal_v0_24__pxrReserved__17Gf_OstreamHelperPEf(float noundef %0) #0 comdat {
  %2 = alloca %"struct.pxrInternal_v0_24__pxrReserved__::TfStreamFloat", align 4
  %3 = alloca float, align 4
  store float %0, ptr %3, align 4
  %4 = load float, ptr %3, align 4
  call void @_ZN32pxrInternal_v0_24__pxrReserved__13TfStreamFloatC2Ef(ptr noundef nonnull align 4 dereferenceable(4) %2, float noundef %4)
  %5 = getelementptr inbounds nuw %"struct.pxrInternal_v0_24__pxrReserved__::TfStreamFloat", ptr %2, i32 0, i32 0
  %6 = load float, ptr %5, align 4
  ret float %6
}

; Function Attrs: mustprogress nounwind uwtable
define linkonce_odr noundef float @_ZNK32pxrInternal_v0_24__pxrReserved__9GfRange1f6GetMinEv(ptr noundef nonnull align 4 dereferenceable(8) %0) #2 comdat align 2 {
  %2 = alloca ptr, align 8
  store ptr %0, ptr %2, align 8
  %3 = load ptr, ptr %2, align 8
  %4 = getelementptr inbounds nuw %"class.pxrInternal_v0_24__pxrReserved__::GfRange1f", ptr %3, i32 0, i32 0
  %5 = load float, ptr %4, align 4
  ret float %5
}

; Function Attrs: mustprogress uwtable
define noundef nonnull align 8 dereferenceable(8) ptr @_ZN32pxrInternal_v0_24__pxrReserved__lsERSoRKNS_9GfRange1fE(ptr noundef nonnull align 8 dereferenceable(8) %0, ptr noundef nonnull align 4 dereferenceable(8) %1) #0 {
  %3 = alloca ptr, align 8
  %4 = alloca ptr, align 8
  %5 = alloca %"struct.pxrInternal_v0_24__pxrReserved__::TfStreamFloat", align 4
  %6 = alloca %"struct.pxrInternal_v0_24__pxrReserved__::TfStreamFloat", align 4
  store ptr %0, ptr %3, align 8
  store ptr %1, ptr %4, align 8
  %7 = load ptr, ptr %3, align 8
  %8 = call noundef nonnull align 8 dereferenceable(8) ptr @_ZStlsISt11char_traitsIcEERSt13basic_ostreamIcT_ES5_c(ptr noundef nonnull align 8 dereferenceable(8) %7, i8 noundef signext 91)
  %9 = load ptr, ptr %4, align 8
  %10 = call noundef float @_ZNK32pxrInternal_v0_24__pxrReserved__9GfRange1f6GetMinEv(ptr noundef nonnull align 4 dereferenceable(8) %9)
  %11 = call float @_ZN32pxrInternal_v0_24__pxrReserved__17Gf_OstreamHelperPEf(float noundef %10)
  %12 = getelementptr inbounds nuw %"struct.pxrInternal_v0_24__pxrReserved__::TfStreamFloat", ptr %5, i32 0, i32 0
  store float %11, ptr %12, align 4
  %13 = getelementptr inbounds nuw %"struct.pxrInternal_v0_24__pxrReserved__::TfStreamFloat", ptr %5, i32 0, i32 0
  %14 = load float, ptr %13, align 4
  %15 = call noundef nonnull align 8 dereferenceable(8) ptr @_ZN32pxrInternal_v0_24__pxrReserved__lsERSoNS_13TfStreamFloatE(ptr noundef nonnull align 8 dereferenceable(8) %8, float %14)
  %16 = call noundef nonnull align 8 dereferenceable(8) ptr @_ZStlsISt11char_traitsIcEERSt13basic_ostreamIcT_ES5_PKc(ptr noundef nonnull align 8 dereferenceable(8) %15, ptr noundef @.str.2)
  %17 = load ptr, ptr %4, align 8
  %18 = call noundef float @_ZNK32pxrInternal_v0_24__pxrReserved__9GfRange1f6GetMaxEv(ptr noundef nonnull align 4 dereferenceable(8) %17)
  %19 = call float @_ZN32pxrInternal_v0_24__pxrReserved__17Gf_OstreamHelperPEf(float noundef %18)
  %20 = getelementptr inbounds nuw %"struct.pxrInternal_v0_24__pxrReserved__::TfStreamFloat", ptr %6, i32 0, i32 0
  store float %19, ptr %20, align 4
  %21 = getelementptr inbounds nuw %"struct.pxrInternal_v0_24__pxrReserved__::TfStreamFloat", ptr %6, i32 0, i32 0
  %22 = load float, ptr %21, align 4
  %23 = call noundef nonnull align 8 dereferenceable(8) ptr @_ZN32pxrInternal_v0_24__pxrReserved__lsERSoNS_13TfStreamFloatE(ptr noundef nonnull align 8 dereferenceable(8) %16, float %22)
  %24 = call noundef nonnull align 8 dereferenceable(8) ptr @_ZStlsISt11char_traitsIcEERSt13basic_ostreamIcT_ES5_c(ptr noundef nonnull align 8 dereferenceable(8) %23, i8 noundef signext 93)
  ret ptr %24
}